target datalayout = "e-m:e-p270:32:32-p271:32:32-p272:64:64-i64:64-i128:128-f80:128-n8:16:32:64-S128"
target triple = "x86_64-pc-linux-gnu"

%struct.st__table = type { ptr, ptr, i32, i32, i32, i32, double, ptr }
%struct.st__table_entry = type { ptr, ptr, ptr }

; Function Attrs: inlinehint nounwind uwtable
define internal i32 @Abc_AbsInt(i32 noundef %0) #4 {
  %2 = alloca i32, align 4
  store i32 %0, ptr %2, align 4, !tbaa !7
  %3 = load i32, ptr %2, align 4, !tbaa !7
  %4 = icmp slt i32 %3, 0
  br i1 %4, label %5, label %8

5:                                                ; preds = %1
  %6 = load i32, ptr %2, align 4, !tbaa !7
  %7 = sub nsw i32 0, %6
  br label %10

8:                                                ; preds = %1
  %9 = load i32, ptr %2, align 4, !tbaa !7
  br label %10

10:                                               ; preds = %8, %5
  %11 = phi i32 [ %7, %5 ], [ %9, %8 ]
  ret i32 %11
}

; Function Attrs: nounwind uwtable
define i32 @st__find_or_add(ptr noundef %0, ptr noundef %1, ptr noundef %2) #0 {
  %4 = alloca i32, align 4
  %5 = alloca ptr, align 8
  %6 = alloca ptr, align 8
  %7 = alloca ptr, align 8
  %8 = alloca i32, align 4
  %9 = alloca ptr, align 8
  %10 = alloca ptr, align 8
  %11 = alloca ptr, align 8
  %12 = alloca i32, align 4
  store ptr %0, ptr %5, align 8, !tbaa !11
  store ptr %1, ptr %6, align 8, !tbaa !32
  store ptr %2, ptr %7, align 8, !tbaa !46
  call void @llvm.lifetime.start.p0(i64 4, ptr %8) #6
  call void @llvm.lifetime.start.p0(i64 8, ptr %9) #6
  call void @llvm.lifetime.start.p0(i64 8, ptr %10) #6
  call void @llvm.lifetime.start.p0(i64 8, ptr %11) #6
  %13 = load ptr, ptr %5, align 8, !tbaa !11
  %14 = getelementptr inbounds nuw %struct.st__table, ptr %13, i32 0, i32 1
  %15 = load ptr, ptr %14, align 8, !tbaa !16
  %16 = icmp eq ptr %15, @st__ptrhash
  br i1 %16, label %17, label %27

17:                                               ; preds = %3
  %18 = load ptr, ptr %6, align 8, !tbaa !32
  %19 = ptrtoint ptr %18 to i64
  %20 = lshr i64 %19, 2
  %21 = load ptr, ptr %5, align 8, !tbaa !11
  %22 = getelementptr inbounds nuw %struct.st__table, ptr %21, i32 0, i32 2
  %23 = load i32, ptr %22, align 8, !tbaa !21
  %24 = sext i32 %23 to i64
  %25 = urem i64 %20, %24
  %26 = trunc i64 %25 to i32
  br label %52

27:                                               ; preds = %3
  %28 = load ptr, ptr %5, align 8, !tbaa !11
  %29 = getelementptr inbounds nuw %struct.st__table, ptr %28, i32 0, i32 1
  %30 = load ptr, ptr %29, align 8, !tbaa !16
  %31 = icmp eq ptr %30, @st__numhash
  br i1 %31, label %32, label %41

32:                                               ; preds = %27
  %33 = load ptr, ptr %6, align 8, !tbaa !32
  %34 = ptrtoint ptr %33 to i64
  %35 = trunc i64 %34 to i32
  %36 = call i32 @Abc_AbsInt(i32 noundef %35)
  %37 = load ptr, ptr %5, align 8, !tbaa !11
  %38 = getelementptr inbounds nuw %struct.st__table, ptr %37, i32 0, i32 2
  %39 = load i32, ptr %38, align 8, !tbaa !21
  %40 = srem i32 %36, %39
  br label %50

41:                                               ; preds = %27
  %42 = load ptr, ptr %5, align 8, !tbaa !11
  %43 = getelementptr inbounds nuw %struct.st__table, ptr %42, i32 0, i32 1
  %44 = load ptr, ptr %43, align 8, !tbaa !16
  %45 = load ptr, ptr %6, align 8, !tbaa !32
  %46 = load ptr, ptr %5, align 8, !tbaa !11
  %47 = getelementptr inbounds nuw %struct.st__table, ptr %46, i32 0, i32 2
  %48 = load i32, ptr %47, align 8, !tbaa !21
  %49 = call i32 %44(ptr noundef %45, i32 noundef %48)
  br label %50

50:                                               ; preds = %41, %32
  %51 = phi i32 [ %40, %32 ], [ %49, %41 ]
  br label %52

52:                                               ; preds = %50, %17
  %53 = phi i32 [ %26, %17 ], [ %51, %50 ]
  store i32 %53, ptr %8, align 4, !tbaa !7
  %54 = load ptr, ptr %5, align 8, !tbaa !11
  %55 = getelementptr inbounds nuw %struct.st__table, ptr %54, i32 0, i32 7
  %56 = load ptr, ptr %55, align 8, !tbaa !22
  %57 = load i32, ptr %8, align 4, !tbaa !7
  %58 = sext i32 %57 to i64
  %59 = getelementptr inbounds ptr, ptr %56, i64 %58
  store ptr %59, ptr %11, align 8, !tbaa !35
  %60 = load ptr, ptr %11, align 8, !tbaa !35
  %61 = load ptr, ptr %60, align 8, !tbaa !23
  store ptr %61, ptr %10, align 8, !tbaa !23
  br label %62

62:                                               ; preds = %101, %52
  %63 = load ptr, ptr %10, align 8, !tbaa !23
  %64 = icmp ne ptr %63, null
  br i1 %64, label %65, label %99

65:                                               ; preds = %62
  %66 = load ptr, ptr %5, align 8, !tbaa !11
  %67 = getelementptr inbounds nuw %struct.st__table, ptr %66, i32 0, i32 0
  %68 = load ptr, ptr %67, align 8, !tbaa !13
  %69 = icmp eq ptr %68, @st__numcmp
  br i1 %69, label %75, label %70

70:                                               ; preds = %65
  %71 = load ptr, ptr %5, align 8, !tbaa !11
  %72 = getelementptr inbounds nuw %struct.st__table, ptr %71, i32 0, i32 0
  %73 = load ptr, ptr %72, align 8, !tbaa !13
  %74 = icmp eq ptr %73, @st__ptrcmp
  br i1 %74, label %75, label %84

75:                                               ; preds = %70, %65
  %76 = load ptr, ptr %6, align 8, !tbaa !32
  %77 = load ptr, ptr %10, align 8, !tbaa !23
  %78 = getelementptr inbounds nuw %struct.st__table_entry, ptr %77, i32 0, i32 0
  %79 = load ptr, ptr %78, align 8, !tbaa !36
  %80 = icmp ne ptr %76, %79
  %81 = zext i1 %80 to i32
  %82 = icmp eq i32 %81, 0
  %83 = zext i1 %82 to i32
  br label %95

84:                                               ; preds = %70
  %85 = load ptr, ptr %5, align 8, !tbaa !11
  %86 = getelementptr inbounds nuw %struct.st__table, ptr %85, i32 0, i32 0
  %87 = load ptr, ptr %86, align 8, !tbaa !13
  %88 = load ptr, ptr %6, align 8, !tbaa !32
  %89 = load ptr, ptr %10, align 8, !tbaa !23
  %90 = getelementptr inbounds nuw %struct.st__table_entry, ptr %89, i32 0, i32 0
  %91 = load ptr, ptr %90, align 8, !tbaa !36
  %92 = call i32 %87(ptr noundef %88, ptr noundef %91)
  %93 = icmp eq i32 %92, 0
  %94 = zext i1 %93 to i32
  br label %95

95:                                               ; preds = %84, %75
  %96 = phi i32 [ %83, %75 ], [ %94, %84 ]
  %97 = icmp ne i32 %96, 0
  %98 = xor i1 %97, true
  br label %99

99:                                               ; preds = %95, %62
  %100 = phi i1 [ false, %62 ], [ %98, %95 ]
  br i1 %100, label %101, label %106

101:                                              ; preds = %99
  %102 = load ptr, ptr %10, align 8, !tbaa !23
  %103 = getelementptr inbounds nuw %struct.st__table_entry, ptr %102, i32 0, i32 2
  store ptr %103, ptr %11, align 8, !tbaa !35
  %104 = load ptr, ptr %11, align 8, !tbaa !35
  %105 = load ptr, ptr %104, align 8, !tbaa !23
  store ptr %105, ptr %10, align 8, !tbaa !23
  br label %62, !llvm.loop !48

106:                                              ; preds = %99
  %107 = load ptr, ptr %10, align 8, !tbaa !23
  %108 = icmp ne ptr %107, null
  br i1 %108, label %109, label %135

109:                                              ; preds = %106
  %110 = load ptr, ptr %5, align 8, !tbaa !11
  %111 = getelementptr inbounds nuw %struct.st__table, ptr %110, i32 0, i32 5
  %112 = load i32, ptr %111, align 4, !tbaa !20
  %113 = icmp ne i32 %112, 0
  br i1 %113, label %114, label %135

114:                                              ; preds = %109
  %115 = load ptr, ptr %10, align 8, !tbaa !23
  %116 = getelementptr inbounds nuw %struct.st__table_entry, ptr %115, i32 0, i32 2
  %117 = load ptr, ptr %116, align 8, !tbaa !27
  %118 = load ptr, ptr %11, align 8, !tbaa !35
  store ptr %117, ptr %118, align 8, !tbaa !23
  %119 = load ptr, ptr %5, align 8, !tbaa !11
  %120 = getelementptr inbounds nuw %struct.st__table, ptr %119, i32 0, i32 7
  %121 = load ptr, ptr %120, align 8, !tbaa !22
  %122 = load i32, ptr %8, align 4, !tbaa !7
  %123 = sext i32 %122 to i64
  %124 = getelementptr inbounds ptr, ptr %121, i64 %123
  %125 = load ptr, ptr %124, align 8, !tbaa !23
  %126 = load ptr, ptr %10, align 8, !tbaa !23
  %127 = getelementptr inbounds nuw %struct.st__table_entry, ptr %126, i32 0, i32 2
  store ptr %125, ptr %127, align 8, !tbaa !27
  %128 = load ptr, ptr %10, align 8, !tbaa !23
  %129 = load ptr, ptr %5, align 8, !tbaa !11
  %130 = getelementptr inbounds nuw %struct.st__table, ptr %129, i32 0, i32 7
  %131 = load ptr, ptr %130, align 8, !tbaa !22
  %132 = load i32, ptr %8, align 4, !tbaa !7
  %133 = sext i32 %132 to i64
  %134 = getelementptr inbounds ptr, ptr %131, i64 %133
  store ptr %128, ptr %134, align 8, !tbaa !23
  br label %135

135:                                              ; preds = %114, %109, %106
  %136 = load ptr, ptr %10, align 8, !tbaa !23
  %137 = icmp eq ptr %136, null
  br i1 %137, label %138, label %235

138:                                              ; preds = %135
  %139 = load ptr, ptr %5, align 8, !tbaa !11
  %140 = getelementptr inbounds nuw %struct.st__table, ptr %139, i32 0, i32 3
  %141 = load i32, ptr %140, align 4, !tbaa !17
  %142 = load ptr, ptr %5, align 8, !tbaa !11
  %143 = getelementptr inbounds nuw %struct.st__table, ptr %142, i32 0, i32 2
  %144 = load i32, ptr %143, align 8, !tbaa !21
  %145 = sdiv i32 %141, %144
  %146 = load ptr, ptr %5, align 8, !tbaa !11
  %147 = getelementptr inbounds nuw %struct.st__table, ptr %146, i32 0, i32 4
  %148 = load i32, ptr %147, align 8, !tbaa !18
  %149 = icmp sge i32 %145, %148
  br i1 %149, label %150, label %197

150:                                              ; preds = %138
  %151 = load ptr, ptr %5, align 8, !tbaa !11
  %152 = call i32 @rehash(ptr noundef %151)
  %153 = icmp eq i32 %152, -10000
  br i1 %153, label %154, label %155

154:                                              ; preds = %150
  store i32 -10000, ptr %4, align 4
  store i32 1, ptr %12, align 4
  br label %243

155:                                              ; preds = %150
  %156 = load ptr, ptr %5, align 8, !tbaa !11
  %157 = getelementptr inbounds nuw %struct.st__table, ptr %156, i32 0, i32 1
  %158 = load ptr, ptr %157, align 8, !tbaa !16
  %159 = icmp eq ptr %158, @st__ptrhash
  br i1 %159, label %160, label %170

160:                                              ; preds = %155
  %161 = load ptr, ptr %6, align 8, !tbaa !32
  %162 = ptrtoint ptr %161 to i64
  %163 = lshr i64 %162, 2
  %164 = load ptr, ptr %5, align 8, !tbaa !11
  %165 = getelementptr inbounds nuw %struct.st__table, ptr %164, i32 0, i32 2
  %166 = load i32, ptr %165, align 8, !tbaa !21
  %167 = sext i32 %166 to i64
  %168 = urem i64 %163, %167
  %169 = trunc i64 %168 to i32
  br label %195

170:                                              ; preds = %155
  %171 = load ptr, ptr %5, align 8, !tbaa !11
  %172 = getelementptr inbounds nuw %struct.st__table, ptr %171, i32 0, i32 1
  %173 = load ptr, ptr %172, align 8, !tbaa !16
  %174 = icmp eq ptr %173, @st__numhash
  br i1 %174, label %175, label %184

175:                                              ; preds = %170
  %176 = load ptr, ptr %6, align 8, !tbaa !32
  %177 = ptrtoint ptr %176 to i64
  %178 = trunc i64 %177 to i32
  %179 = call i32 @Abc_AbsInt(i32 noundef %178)
  %180 = load ptr, ptr %5, align 8, !tbaa !11
  %181 = getelementptr inbounds nuw %struct.st__table, ptr %180, i32 0, i32 2
  %182 = load i32, ptr %181, align 8, !tbaa !21
  %183 = srem i32 %179, %182
  br label %193

184:                                              ; preds = %170
  %185 = load ptr, ptr %5, align 8, !tbaa !11
  %186 = getelementptr inbounds nuw %struct.st__table, ptr %185, i32 0, i32 1
  %187 = load ptr, ptr %186, align 8, !tbaa !16
  %188 = load ptr, ptr %6, align 8, !tbaa !32
  %189 = load ptr, ptr %5, align 8, !tbaa !11
  %190 = getelementptr inbounds nuw %struct.st__table, ptr %189, i32 0, i32 2
  %191 = load i32, ptr %190, align 8, !tbaa !21
  %192 = call i32 %187(ptr noundef %188, i32 noundef %191)
  br label %193

193:                                              ; preds = %184, %175
  %194 = phi i32 [ %183, %175 ], [ %192, %184 ]
  br label %195

195:                                              ; preds = %193, %160
  %196 = phi i32 [ %169, %160 ], [ %194, %193 ]
  store i32 %196, ptr %8, align 4, !tbaa !7
  br label %197

197:                                              ; preds = %195, %138
  %198 = call noalias ptr @malloc(i64 noundef 24) #7
  store ptr %198, ptr %9, align 8, !tbaa !23
  %199 = load ptr, ptr %9, align 8, !tbaa !23
  %200 = icmp eq ptr %199, null
  br i1 %200, label %201, label %202

201:                                              ; preds = %197
  store i32 -10000, ptr %4, align 4
  store i32 1, ptr %12, align 4
  br label %243

202:                                              ; preds = %197
  %203 = load ptr, ptr %6, align 8, !tbaa !32
  %204 = load ptr, ptr %9, align 8, !tbaa !23
  %205 = getelementptr inbounds nuw %struct.st__table_entry, ptr %204, i32 0, i32 0
  store ptr %203, ptr %205, align 8, !tbaa !36
  %206 = load ptr, ptr %9, align 8, !tbaa !23
  %207 = getelementptr inbounds nuw %struct.st__table_entry, ptr %206, i32 0, i32 1
  store ptr null, ptr %207, align 8, !tbaa !38
  %208 = load ptr, ptr %5, align 8, !tbaa !11
  %209 = getelementptr inbounds nuw %struct.st__table, ptr %208, i32 0, i32 7
  %210 = load ptr, ptr %209, align 8, !tbaa !22
  %211 = load i32, ptr %8, align 4, !tbaa !7
  %212 = sext i32 %211 to i64
  %213 = getelementptr inbounds ptr, ptr %210, i64 %212
  %214 = load ptr, ptr %213, align 8, !tbaa !23
  %215 = load ptr, ptr %9, align 8, !tbaa !23
  %216 = getelementptr inbounds nuw %struct.st__table_entry, ptr %215, i32 0, i32 2
  store ptr %214, ptr %216, align 8, !tbaa !27
  %217 = load ptr, ptr %9, align 8, !tbaa !23
  %218 = load ptr, ptr %5, align 8, !tbaa !11
  %219 = getelementptr inbounds nuw %struct.st__table, ptr %218, i32 0, i32 7
  %220 = load ptr, ptr %219, align 8, !tbaa !22
  %221 = load i32, ptr %8, align 4, !tbaa !7
  %222 = sext i32 %221 to i64
  %223 = getelementptr inbounds ptr, ptr %220, i64 %222
  store ptr %217, ptr %223, align 8, !tbaa !23
  %224 = load ptr, ptr %5, align 8, !tbaa !11
  %225 = getelementptr inbounds nuw %struct.st__table, ptr %224, i32 0, i32 3
  %226 = load i32, ptr %225, align 4, !tbaa !17
  %227 = add nsw i32 %226, 1
  store i32 %227, ptr %225, align 4, !tbaa !17
  %228 = load ptr, ptr %7, align 8, !tbaa !46
  %229 = icmp ne ptr %228, null
  br i1 %229, label %230, label %234

230:                                              ; preds = %202
  %231 = load ptr, ptr %9, align 8, !tbaa !23
  %232 = getelementptr inbounds nuw %struct.st__table_entry, ptr %231, i32 0, i32 1
  %233 = load ptr, ptr %7, align 8, !tbaa !46
  store ptr %232, ptr %233, align 8, !tbaa !33
  br label %234

234:                                              ; preds = %230, %202
  store i32 0, ptr %4, align 4
  store i32 1, ptr %12, align 4
  br label %243

235:                                              ; preds = %135
  %236 = load ptr, ptr %7, align 8, !tbaa !46
  %237 = icmp ne ptr %236, null
  br i1 %237, label %238, label %242

238:                                              ; preds = %235
  %239 = load ptr, ptr %10, align 8, !tbaa !23
  %240 = getelementptr inbounds nuw %struct.st__table_entry, ptr %239, i32 0, i32 1
  %241 = load ptr, ptr %7, align 8, !tbaa !46
  store ptr %240, ptr %241, align 8, !tbaa !33
  br label %242

242:                                              ; preds = %238, %235
  store i32 1, ptr %4, align 4
  store i32 1, ptr %12, align 4
  br label %243

243:                                              ; preds = %242, %234, %201, %154
  call void @llvm.lifetime.end.p0(i64 8, ptr %11) #6
  call void @llvm.lifetime.end.p0(i64 8, ptr %10) #6
  call void @llvm.lifetime.end.p0(i64 8, ptr %9) #6
  call void @llvm.lifetime.end.p0(i64 4, ptr %8) #6
  %244 = load i32, ptr %4, align 4
  ret i32 %244
}