; Function Attrs: nounwind uwtable
define range(i32 -10000, 2) i32 @st__find_or_add(ptr noundef captures(none) %0, ptr noundef %1, ptr noundef writeonly %2) local_unnamed_addr #3 {
  %4 = getelementptr inbounds nuw i8, ptr %0, i64 8
  %5 = load ptr, ptr %4, align 8, !tbaa !11
  %6 = icmp eq ptr %5, @st__ptrhash
  br i1 %6, label %7, label %15

7:                                                ; preds = %3
  %8 = ptrtoint ptr %1 to i64
  %9 = lshr i64 %8, 2
  %10 = getelementptr inbounds nuw i8, ptr %0, i64 16
  %11 = load i32, ptr %10, align 8, !tbaa !16
  %12 = sext i32 %11 to i64
  %13 = urem i64 %9, %12
  %14 = trunc i64 %13 to i32
  br label %28

15:                                               ; preds = %3
  %16 = icmp eq ptr %5, @st__numhash
  br i1 %16, label %17, label %24

17:                                               ; preds = %15
  %18 = ptrtoint ptr %1 to i64
  %19 = trunc i64 %18 to i32
  %20 = tail call range(i32 0, -2147483648) i32 @llvm.abs.i32(i32 %19, i1 true)
  %21 = getelementptr inbounds nuw i8, ptr %0, i64 16
  %22 = load i32, ptr %21, align 8, !tbaa !16
  %23 = srem i32 %20, %22
  br label %28

24:                                               ; preds = %15
  %25 = getelementptr inbounds nuw i8, ptr %0, i64 16
  %26 = load i32, ptr %25, align 8, !tbaa !16
  %27 = tail call i32 %5(ptr noundef %1, i32 noundef %26) #14
  br label %28

28:                                               ; preds = %17, %24, %7
  %29 = phi i32 [ %14, %7 ], [ %23, %17 ], [ %27, %24 ]
  %30 = getelementptr inbounds nuw i8, ptr %0, i64 40
  %31 = load ptr, ptr %30, align 8, !tbaa !17
  %32 = sext i32 %29 to i64
  %33 = getelementptr inbounds ptr, ptr %31, i64 %32
  %.06379 = load ptr, ptr %33, align 8, !tbaa !18
  %.not80 = icmp eq ptr %.06379, null
  br i1 %.not80, label %.critedge76, label %.lr.ph

.lr.ph:                                           ; preds = %28, %42
  %.06382 = phi ptr [ %.063, %42 ], [ %.06379, %28 ]
  %.081 = phi ptr [ %43, %42 ], [ %33, %28 ]
  %34 = load ptr, ptr %0, align 8, !tbaa !3
  %35 = icmp eq ptr %34, @st__numcmp
  %36 = icmp eq ptr %34, @st__ptrcmp
  %or.cond = or i1 %35, %36
  %37 = load ptr, ptr %.06382, align 8, !tbaa !26
  br i1 %or.cond, label %38, label %39

38:                                               ; preds = %.lr.ph
  %.not71 = icmp eq ptr %1, %37
  br i1 %.not71, label %.critedge, label %42

39:                                               ; preds = %.lr.ph
  %40 = tail call i32 %34(ptr noundef %1, ptr noundef %37) #14
  %41 = icmp eq i32 %40, 0
  br i1 %41, label %.critedge, label %42

42:                                               ; preds = %38, %39
  %43 = getelementptr inbounds nuw i8, ptr %.06382, i64 16
  %.063 = load ptr, ptr %43, align 8, !tbaa !18
  %.not = icmp eq ptr %.063, null
  br i1 %.not, label %.critedge76, label %.lr.ph, !llvm.loop !37

.critedge:                                        ; preds = %39, %38
  %44 = getelementptr inbounds nuw i8, ptr %0, i64 28
  %45 = load i32, ptr %44, align 4, !tbaa !15
  %.not72 = icmp eq i32 %45, 0
  br i1 %.not72, label %95, label %46

46:                                               ; preds = %.critedge
  %47 = getelementptr inbounds nuw i8, ptr %.06382, i64 16
  %48 = load ptr, ptr %47, align 8, !tbaa !20
  store ptr %48, ptr %.081, align 8, !tbaa !18
  %49 = load ptr, ptr %30, align 8, !tbaa !17
  %50 = getelementptr inbounds ptr, ptr %49, i64 %32
  %51 = load ptr, ptr %50, align 8, !tbaa !18
  store ptr %51, ptr %47, align 8, !tbaa !20
  store ptr %.06382, ptr %50, align 8, !tbaa !18
  br label %95

.critedge76:                                      ; preds = %42, %28
  %52 = getelementptr inbounds nuw i8, ptr %0, i64 20
  %53 = load i32, ptr %52, align 4, !tbaa !12
  %54 = getelementptr inbounds nuw i8, ptr %0, i64 16
  %55 = load i32, ptr %54, align 8, !tbaa !16
  %56 = sdiv i32 %53, %55
  %57 = getelementptr inbounds nuw i8, ptr %0, i64 24
  %58 = load i32, ptr %57, align 8, !tbaa !13
  %.not74 = icmp slt i32 %56, %58
  br i1 %.not74, label %83, label %59

59:                                               ; preds = %.critedge76
  %60 = tail call fastcc i32 @rehash(ptr noundef nonnull %0)
  %61 = icmp eq i32 %60, -10000
  br i1 %61, label %98, label %62

62:                                               ; preds = %59
  %63 = load ptr, ptr %4, align 8, !tbaa !11
  %64 = icmp eq ptr %63, @st__ptrhash
  br i1 %64, label %65, label %72

65:                                               ; preds = %62
  %66 = ptrtoint ptr %1 to i64
  %67 = lshr i64 %66, 2
  %68 = load i32, ptr %54, align 8, !tbaa !16
  %69 = sext i32 %68 to i64
  %70 = urem i64 %67, %69
  %71 = trunc i64 %70 to i32
  br label %83

72:                                               ; preds = %62
  %73 = icmp eq ptr %63, @st__numhash
  br i1 %73, label %74, label %80

74:                                               ; preds = %72
  %75 = ptrtoint ptr %1 to i64
  %76 = trunc i64 %75 to i32
  %77 = tail call range(i32 0, -2147483648) i32 @llvm.abs.i32(i32 %76, i1 true)
  %78 = load i32, ptr %54, align 8, !tbaa !16
  %79 = srem i32 %77, %78
  br label %83

80:                                               ; preds = %72
  %81 = load i32, ptr %54, align 8, !tbaa !16
  %82 = tail call i32 %63(ptr noundef %1, i32 noundef %81) #14
  br label %83

83:                                               ; preds = %65, %80, %74, %.critedge76
  %.065 = phi i32 [ %29, %.critedge76 ], [ %71, %65 ], [ %79, %74 ], [ %82, %80 ]
  %84 = tail call noalias dereferenceable_or_null(24) ptr @malloc(i64 noundef 24) #13
  %85 = icmp eq ptr %84, null
  br i1 %85, label %98, label %86

86:                                               ; preds = %83
  store ptr %1, ptr %84, align 8, !tbaa !26
  %87 = getelementptr inbounds nuw i8, ptr %84, i64 8
  store ptr null, ptr %87, align 8, !tbaa !28
  %88 = load ptr, ptr %30, align 8, !tbaa !17
  %89 = sext i32 %.065 to i64
  %90 = getelementptr inbounds ptr, ptr %88, i64 %89
  %91 = load ptr, ptr %90, align 8, !tbaa !18
  %92 = getelementptr inbounds nuw i8, ptr %84, i64 16
  store ptr %91, ptr %92, align 8, !tbaa !20
  store ptr %84, ptr %90, align 8, !tbaa !18
  %93 = load i32, ptr %52, align 4, !tbaa !12
  %94 = add nsw i32 %93, 1
  store i32 %94, ptr %52, align 4, !tbaa !12
  %.not75 = icmp eq ptr %2, null
  br i1 %.not75, label %98, label %.sink.split

95:                                               ; preds = %46, %.critedge
  %.not73 = icmp eq ptr %2, null
  br i1 %.not73, label %98, label %96

96:                                               ; preds = %95
  %97 = getelementptr inbounds nuw i8, ptr %.06382, i64 8
  br label %.sink.split

.sink.split:                                      ; preds = %86, %96
  %.sink = phi ptr [ %97, %96 ], [ %87, %86 ]
  %.064.ph = phi i32 [ 1, %96 ], [ 0, %86 ]
  store ptr %.sink, ptr %2, align 8, !tbaa !38
  br label %98

98:                                               ; preds = %.sink.split, %95, %86, %83, %59
  %.064 = phi i32 [ -10000, %59 ], [ -10000, %83 ], [ 0, %86 ], [ 1, %95 ], [ %.064.ph, %.sink.split ]
  ret i32 %.064
}